; Function Attrs: nounwind uwtable
define void @Aig_MmFixedStop(ptr noundef %0, i32 noundef %1) local_unnamed_addr #2 {
  %3 = icmp eq ptr %0, null
  br i1 %3, label %40, label %4

4:                                                ; preds = %2
  %.not = icmp eq i32 %1, 0
  br i1 %.not, label %21, label %5

5:                                                ; preds = %4
  %6 = load i32, ptr %0, align 8, !tbaa !3
  %7 = getelementptr inbounds nuw i8, ptr %0, i64 24
  %8 = load i32, ptr %7, align 8, !tbaa !11
  %9 = getelementptr inbounds nuw i8, ptr %0, i64 32
  %10 = load i32, ptr %9, align 8, !tbaa !14
  %11 = tail call i32 (ptr, ...) @printf(ptr noundef nonnull dereferenceable(1) @.str, i32 noundef %6, i32 noundef %8, i32 noundef %10)
  %12 = getelementptr inbounds nuw i8, ptr %0, i64 8
  %13 = load i32, ptr %12, align 8, !tbaa !15
  %14 = getelementptr inbounds nuw i8, ptr %0, i64 12
  %15 = load i32, ptr %14, align 4, !tbaa !16
  %16 = load i32, ptr %0, align 8, !tbaa !3
  %17 = mul nsw i32 %16, %13
  %18 = getelementptr inbounds nuw i8, ptr %0, i64 52
  %19 = load i32, ptr %18, align 4, !tbaa !17
  %20 = tail call i32 (ptr, ...) @printf(ptr noundef nonnull dereferenceable(1) @.str.1, i32 noundef %13, i32 noundef %15, i32 noundef %17, i32 noundef %19)
  br label %21

21:                                               ; preds = %5, %4
  %22 = getelementptr inbounds nuw i8, ptr %0, i64 32
  %23 = load i32, ptr %22, align 8, !tbaa !14
  %24 = icmp sgt i32 %23, 0
  %25 = getelementptr inbounds nuw i8, ptr %0, i64 40
  %.pre = load ptr, ptr %25, align 8, !tbaa !13
  br i1 %24, label %.lr.ph, label %._crit_edge

.lr.ph:                                           ; preds = %21, %33
  %26 = phi i32 [ %34, %33 ], [ %23, %21 ]
  %27 = phi ptr [ %35, %33 ], [ %.pre, %21 ]
  %indvars.iv = phi i64 [ %indvars.iv.next, %33 ], [ 0, %21 ]
  %28 = getelementptr inbounds nuw ptr, ptr %27, i64 %indvars.iv
  %29 = load ptr, ptr %28, align 8, !tbaa !18
  %.not27 = icmp eq ptr %29, null
  br i1 %.not27, label %33, label %30

30:                                               ; preds = %.lr.ph
  tail call void @free(ptr noundef nonnull %29) #15
  %31 = load ptr, ptr %25, align 8, !tbaa !13
  %32 = getelementptr inbounds nuw ptr, ptr %31, i64 %indvars.iv
  store ptr null, ptr %32, align 8, !tbaa !18
  %.pre30 = load i32, ptr %22, align 8, !tbaa !14
  br label %33

33:                                               ; preds = %30, %.lr.ph
  %34 = phi i32 [ %.pre30, %30 ], [ %26, %.lr.ph ]
  %35 = phi ptr [ %31, %30 ], [ %27, %.lr.ph ]
  %indvars.iv.next = add nuw nsw i64 %indvars.iv, 1
  %36 = sext i32 %34 to i64
  %37 = icmp slt i64 %indvars.iv.next, %36
  br i1 %37, label %.lr.ph, label %._crit_edge.thread, !llvm.loop !19

._crit_edge:                                      ; preds = %21
  %.not26 = icmp eq ptr %.pre, null
  br i1 %.not26, label %39, label %._crit_edge.thread

._crit_edge.thread:                               ; preds = %33, %._crit_edge
  %38 = phi ptr [ %.pre, %._crit_edge ], [ %35, %33 ]
  tail call void @free(ptr noundef nonnull %38) #15
  br label %39

39:                                               ; preds = %._crit_edge.thread, %._crit_edge
  tail call void @free(ptr noundef nonnull %0) #15
  br label %40

40:                                               ; preds = %2, %39
  ret void
}